
code.bin:     file format elf32-littlearm


Disassembly of section .init:

00008000 <_init>:
    8000:	b5f8      	push	{r3, r4, r5, r6, r7, lr}
    8002:	46c0      	nop			; (mov r8, r8)
    8004:	bcf8      	pop	{r3, r4, r5, r6, r7}
    8006:	bc08      	pop	{r3}
    8008:	469e      	mov	lr, r3
    800a:	4770      	bx	lr

Disassembly of section .text:

0000800c <exit>:
    800c:	b510      	push	{r4, lr}
    800e:	2100      	movs	r1, #0
    8010:	1c04      	adds	r4, r0, #0
    8012:	f000 f935 	bl	8280 <__call_exitprocs>
    8016:	4b04      	ldr	r3, [pc, #16]	; (8028 <exit+0x1c>)
    8018:	6818      	ldr	r0, [r3, #0]
    801a:	6bc3      	ldr	r3, [r0, #60]	; 0x3c
    801c:	2b00      	cmp	r3, #0
    801e:	d000      	beq.n	8022 <exit+0x16>
    8020:	4798      	blx	r3
    8022:	1c20      	adds	r0, r4, #0
    8024:	f000 fa3c 	bl	84a0 <_exit>
    8028:	000084b4 			; <UNDEFINED> instruction: 0x000084b4

0000802c <register_fini>:
    802c:	b508      	push	{r3, lr}
    802e:	4b03      	ldr	r3, [pc, #12]	; (803c <register_fini+0x10>)
    8030:	2b00      	cmp	r3, #0
    8032:	d002      	beq.n	803a <register_fini+0xe>
    8034:	4802      	ldr	r0, [pc, #8]	; (8040 <register_fini+0x14>)
    8036:	f000 f9a7 	bl	8388 <atexit>
    803a:	bd08      	pop	{r3, pc}
    803c:	00000000 	andeq	r0, r0, r0
    8040:	00008399 	muleq	r0, r9, r3

00008044 <__do_global_dtors_aux>:
    8044:	b510      	push	{r4, lr}
    8046:	4c06      	ldr	r4, [pc, #24]	; (8060 <__do_global_dtors_aux+0x1c>)
    8048:	7823      	ldrb	r3, [r4, #0]
    804a:	2b00      	cmp	r3, #0
    804c:	d107      	bne.n	805e <__do_global_dtors_aux+0x1a>
    804e:	4b05      	ldr	r3, [pc, #20]	; (8064 <__do_global_dtors_aux+0x20>)
    8050:	2b00      	cmp	r3, #0
    8052:	d002      	beq.n	805a <__do_global_dtors_aux+0x16>
    8054:	4804      	ldr	r0, [pc, #16]	; (8068 <__do_global_dtors_aux+0x24>)
    8056:	e000      	b.n	805a <__do_global_dtors_aux+0x16>
    8058:	bf00      	nop
    805a:	2301      	movs	r3, #1
    805c:	7023      	strb	r3, [r4, #0]
    805e:	bd10      	pop	{r4, pc}
    8060:	0001090c 	andeq	r0, r1, ip, lsl #18
    8064:	00000000 	andeq	r0, r0, r0
    8068:	000084c0 	andeq	r8, r0, r0, asr #9

0000806c <frame_dummy>:
    806c:	b508      	push	{r3, lr}
    806e:	4b08      	ldr	r3, [pc, #32]	; (8090 <frame_dummy+0x24>)
    8070:	2b00      	cmp	r3, #0
    8072:	d003      	beq.n	807c <frame_dummy+0x10>
    8074:	4807      	ldr	r0, [pc, #28]	; (8094 <frame_dummy+0x28>)
    8076:	4908      	ldr	r1, [pc, #32]	; (8098 <frame_dummy+0x2c>)
    8078:	e000      	b.n	807c <frame_dummy+0x10>
    807a:	bf00      	nop
    807c:	4807      	ldr	r0, [pc, #28]	; (809c <frame_dummy+0x30>)
    807e:	6803      	ldr	r3, [r0, #0]
    8080:	2b00      	cmp	r3, #0
    8082:	d100      	bne.n	8086 <frame_dummy+0x1a>
    8084:	bd08      	pop	{r3, pc}
    8086:	4b06      	ldr	r3, [pc, #24]	; (80a0 <frame_dummy+0x34>)
    8088:	2b00      	cmp	r3, #0
    808a:	d0fb      	beq.n	8084 <frame_dummy+0x18>
    808c:	4798      	blx	r3
    808e:	e7f9      	b.n	8084 <frame_dummy+0x18>
    8090:	00000000 	andeq	r0, r0, r0
    8094:	000084c0 	andeq	r8, r0, r0, asr #9
    8098:	00010910 	andeq	r0, r1, r0, lsl r9
    809c:	000104d0 	ldrdeq	r0, [r1], -r0	; <UNPREDICTABLE>
    80a0:	00000000 	andeq	r0, r0, r0

000080a4 <_mainCRTStartup>:
    80a4:	4b16      	ldr	r3, [pc, #88]	; (8100 <_mainCRTStartup+0x5c>)
    80a6:	2b00      	cmp	r3, #0
    80a8:	d100      	bne.n	80ac <_mainCRTStartup+0x8>
    80aa:	4b14      	ldr	r3, [pc, #80]	; (80fc <_mainCRTStartup+0x58>)
    80ac:	469d      	mov	sp, r3
    80ae:	2240      	movs	r2, #64	; 0x40
    80b0:	0292      	lsls	r2, r2, #10
    80b2:	1a9a      	subs	r2, r3, r2
    80b4:	4692      	mov	sl, r2
    80b6:	2100      	movs	r1, #0
    80b8:	468b      	mov	fp, r1
    80ba:	460f      	mov	r7, r1
    80bc:	4813      	ldr	r0, [pc, #76]	; (810c <_mainCRTStartup+0x68>)
    80be:	4a14      	ldr	r2, [pc, #80]	; (8110 <_mainCRTStartup+0x6c>)
    80c0:	1a12      	subs	r2, r2, r0
    80c2:	f000 f897 	bl	81f4 <memset>
    80c6:	4b0f      	ldr	r3, [pc, #60]	; (8104 <_mainCRTStartup+0x60>)
    80c8:	2b00      	cmp	r3, #0
    80ca:	d000      	beq.n	80ce <_mainCRTStartup+0x2a>
    80cc:	4798      	blx	r3
    80ce:	4b0e      	ldr	r3, [pc, #56]	; (8108 <_mainCRTStartup+0x64>)
    80d0:	2b00      	cmp	r3, #0
    80d2:	d000      	beq.n	80d6 <_mainCRTStartup+0x32>
    80d4:	4798      	blx	r3
    80d6:	2000      	movs	r0, #0
    80d8:	2100      	movs	r1, #0
    80da:	0004      	movs	r4, r0
    80dc:	000d      	movs	r5, r1
    80de:	480d      	ldr	r0, [pc, #52]	; (8114 <_mainCRTStartup+0x70>)
    80e0:	2800      	cmp	r0, #0
    80e2:	d002      	beq.n	80ea <_mainCRTStartup+0x46>
    80e4:	480c      	ldr	r0, [pc, #48]	; (8118 <_mainCRTStartup+0x74>)
    80e6:	f000 f94f 	bl	8388 <atexit>
    80ea:	f000 f85f 	bl	81ac <__libc_init_array>
    80ee:	0020      	movs	r0, r4
    80f0:	0029      	movs	r1, r5
    80f2:	f000 f847 	bl	8184 <main>
    80f6:	f7ff ff89 	bl	800c <exit>
    80fa:	46c0      	nop			; (mov r8, r8)
    80fc:	00080000 	andeq	r0, r8, r0
	...
    810c:	0001090c 	andeq	r0, r1, ip, lsl #18
    8110:	00010928 	andeq	r0, r1, r8, lsr #18
    8114:	00008389 	andeq	r8, r0, r9, lsl #7
    8118:	00008399 	muleq	r0, r9, r3

0000811c <isqrt2>:
    811c:	b580      	push	{r7, lr}
    811e:	b086      	sub	sp, #24
    8120:	af00      	add	r7, sp, #0
    8122:	6078      	str	r0, [r7, #4]
    8124:	687b      	ldr	r3, [r7, #4]
    8126:	2b00      	cmp	r3, #0
    8128:	da01      	bge.n	812e <isqrt2+0x12>
    812a:	2300      	movs	r3, #0
    812c:	e025      	b.n	817a <isqrt2+0x5e>
    812e:	2380      	movs	r3, #128	; 0x80
    8130:	05db      	lsls	r3, r3, #23
    8132:	617b      	str	r3, [r7, #20]
    8134:	687b      	ldr	r3, [r7, #4]
    8136:	613b      	str	r3, [r7, #16]
    8138:	2300      	movs	r3, #0
    813a:	60fb      	str	r3, [r7, #12]
    813c:	e019      	b.n	8172 <isqrt2+0x56>
    813e:	697a      	ldr	r2, [r7, #20]
    8140:	68fb      	ldr	r3, [r7, #12]
    8142:	431a      	orrs	r2, r3
    8144:	693b      	ldr	r3, [r7, #16]
    8146:	429a      	cmp	r2, r3
    8148:	d80d      	bhi.n	8166 <isqrt2+0x4a>
    814a:	697a      	ldr	r2, [r7, #20]
    814c:	68fb      	ldr	r3, [r7, #12]
    814e:	4313      	orrs	r3, r2
    8150:	693a      	ldr	r2, [r7, #16]
    8152:	1ad3      	subs	r3, r2, r3
    8154:	613b      	str	r3, [r7, #16]
    8156:	68fb      	ldr	r3, [r7, #12]
    8158:	085b      	lsrs	r3, r3, #1
    815a:	60fb      	str	r3, [r7, #12]
    815c:	68fa      	ldr	r2, [r7, #12]
    815e:	697b      	ldr	r3, [r7, #20]
    8160:	4313      	orrs	r3, r2
    8162:	60fb      	str	r3, [r7, #12]
    8164:	e002      	b.n	816c <isqrt2+0x50>
    8166:	68fb      	ldr	r3, [r7, #12]
    8168:	085b      	lsrs	r3, r3, #1
    816a:	60fb      	str	r3, [r7, #12]
    816c:	697b      	ldr	r3, [r7, #20]
    816e:	089b      	lsrs	r3, r3, #2
    8170:	617b      	str	r3, [r7, #20]
    8172:	697b      	ldr	r3, [r7, #20]
    8174:	2b00      	cmp	r3, #0
    8176:	d1e2      	bne.n	813e <isqrt2+0x22>
    8178:	68fb      	ldr	r3, [r7, #12]
    817a:	1c18      	adds	r0, r3, #0
    817c:	46bd      	mov	sp, r7
    817e:	b006      	add	sp, #24
    8180:	bd80      	pop	{r7, pc}
    8182:	46c0      	nop			; (mov r8, r8)

00008184 <main>:
    8184:	b580      	push	{r7, lr}
    8186:	b082      	sub	sp, #8
    8188:	af00      	add	r7, sp, #0
    818a:	2000      	movs	r0, #0
    818c:	f7ff ffc6 	bl	811c <isqrt2>
    8190:	1c03      	adds	r3, r0, #0
    8192:	607b      	str	r3, [r7, #4]
    8194:	2380      	movs	r3, #128	; 0x80
    8196:	061b      	lsls	r3, r3, #24
    8198:	603b      	str	r3, [r7, #0]
    819a:	683b      	ldr	r3, [r7, #0]
    819c:	687a      	ldr	r2, [r7, #4]
    819e:	601a      	str	r2, [r3, #0]
    81a0:	687b      	ldr	r3, [r7, #4]
    81a2:	1c18      	adds	r0, r3, #0
    81a4:	46bd      	mov	sp, r7
    81a6:	b002      	add	sp, #8
    81a8:	bd80      	pop	{r7, pc}
    81aa:	46c0      	nop			; (mov r8, r8)

000081ac <__libc_init_array>:
    81ac:	b570      	push	{r4, r5, r6, lr}
    81ae:	4e0d      	ldr	r6, [pc, #52]	; (81e4 <__libc_init_array+0x38>)
    81b0:	4d0d      	ldr	r5, [pc, #52]	; (81e8 <__libc_init_array+0x3c>)
    81b2:	2400      	movs	r4, #0
    81b4:	1bad      	subs	r5, r5, r6
    81b6:	10ad      	asrs	r5, r5, #2
    81b8:	d005      	beq.n	81c6 <__libc_init_array+0x1a>
    81ba:	00a3      	lsls	r3, r4, #2
    81bc:	58f3      	ldr	r3, [r6, r3]
    81be:	3401      	adds	r4, #1
    81c0:	4798      	blx	r3
    81c2:	42a5      	cmp	r5, r4
    81c4:	d1f9      	bne.n	81ba <__libc_init_array+0xe>
    81c6:	f7ff ff1b 	bl	8000 <_init>
    81ca:	4e08      	ldr	r6, [pc, #32]	; (81ec <__libc_init_array+0x40>)
    81cc:	4d08      	ldr	r5, [pc, #32]	; (81f0 <__libc_init_array+0x44>)
    81ce:	2400      	movs	r4, #0
    81d0:	1bad      	subs	r5, r5, r6
    81d2:	10ad      	asrs	r5, r5, #2
    81d4:	d005      	beq.n	81e2 <__libc_init_array+0x36>
    81d6:	00a3      	lsls	r3, r4, #2
    81d8:	58f3      	ldr	r3, [r6, r3]
    81da:	3401      	adds	r4, #1
    81dc:	4798      	blx	r3
    81de:	42a5      	cmp	r5, r4
    81e0:	d1f9      	bne.n	81d6 <__libc_init_array+0x2a>
    81e2:	bd70      	pop	{r4, r5, r6, pc}
    81e4:	000104c4 	andeq	r0, r1, r4, asr #9
    81e8:	000104c4 	andeq	r0, r1, r4, asr #9
    81ec:	000104c4 	andeq	r0, r1, r4, asr #9
    81f0:	000104cc 	andeq	r0, r1, ip, asr #9

000081f4 <memset>:
    81f4:	b570      	push	{r4, r5, r6, lr}
    81f6:	0783      	lsls	r3, r0, #30
    81f8:	d03f      	beq.n	827a <memset+0x86>
    81fa:	1e54      	subs	r4, r2, #1
    81fc:	2a00      	cmp	r2, #0
    81fe:	d03b      	beq.n	8278 <memset+0x84>
    8200:	b2ce      	uxtb	r6, r1
    8202:	1c03      	adds	r3, r0, #0
    8204:	2503      	movs	r5, #3
    8206:	e003      	b.n	8210 <memset+0x1c>
    8208:	1e62      	subs	r2, r4, #1
    820a:	2c00      	cmp	r4, #0
    820c:	d034      	beq.n	8278 <memset+0x84>
    820e:	1c14      	adds	r4, r2, #0
    8210:	3301      	adds	r3, #1
    8212:	1e5a      	subs	r2, r3, #1
    8214:	7016      	strb	r6, [r2, #0]
    8216:	422b      	tst	r3, r5
    8218:	d1f6      	bne.n	8208 <memset+0x14>
    821a:	2c03      	cmp	r4, #3
    821c:	d924      	bls.n	8268 <memset+0x74>
    821e:	25ff      	movs	r5, #255	; 0xff
    8220:	400d      	ands	r5, r1
    8222:	022a      	lsls	r2, r5, #8
    8224:	4315      	orrs	r5, r2
    8226:	042a      	lsls	r2, r5, #16
    8228:	4315      	orrs	r5, r2
    822a:	2c0f      	cmp	r4, #15
    822c:	d911      	bls.n	8252 <memset+0x5e>
    822e:	1c26      	adds	r6, r4, #0
    8230:	3e10      	subs	r6, #16
    8232:	0936      	lsrs	r6, r6, #4
    8234:	3601      	adds	r6, #1
    8236:	0136      	lsls	r6, r6, #4
    8238:	1c1a      	adds	r2, r3, #0
    823a:	199b      	adds	r3, r3, r6
    823c:	6015      	str	r5, [r2, #0]
    823e:	6055      	str	r5, [r2, #4]
    8240:	6095      	str	r5, [r2, #8]
    8242:	60d5      	str	r5, [r2, #12]
    8244:	3210      	adds	r2, #16
    8246:	4293      	cmp	r3, r2
    8248:	d1f8      	bne.n	823c <memset+0x48>
    824a:	220f      	movs	r2, #15
    824c:	4014      	ands	r4, r2
    824e:	2c03      	cmp	r4, #3
    8250:	d90a      	bls.n	8268 <memset+0x74>
    8252:	1f26      	subs	r6, r4, #4
    8254:	08b6      	lsrs	r6, r6, #2
    8256:	3601      	adds	r6, #1
    8258:	00b6      	lsls	r6, r6, #2
    825a:	1c1a      	adds	r2, r3, #0
    825c:	199b      	adds	r3, r3, r6
    825e:	c220      	stmia	r2!, {r5}
    8260:	4293      	cmp	r3, r2
    8262:	d1fc      	bne.n	825e <memset+0x6a>
    8264:	2203      	movs	r2, #3
    8266:	4014      	ands	r4, r2
    8268:	2c00      	cmp	r4, #0
    826a:	d005      	beq.n	8278 <memset+0x84>
    826c:	b2c9      	uxtb	r1, r1
    826e:	191c      	adds	r4, r3, r4
    8270:	7019      	strb	r1, [r3, #0]
    8272:	3301      	adds	r3, #1
    8274:	42a3      	cmp	r3, r4
    8276:	d1fb      	bne.n	8270 <memset+0x7c>
    8278:	bd70      	pop	{r4, r5, r6, pc}
    827a:	1c14      	adds	r4, r2, #0
    827c:	1c03      	adds	r3, r0, #0
    827e:	e7cc      	b.n	821a <memset+0x26>

00008280 <__call_exitprocs>:
    8280:	b5f0      	push	{r4, r5, r6, r7, lr}
    8282:	4656      	mov	r6, sl
    8284:	465f      	mov	r7, fp
    8286:	464d      	mov	r5, r9
    8288:	4644      	mov	r4, r8
    828a:	b4f0      	push	{r4, r5, r6, r7}
    828c:	1c0e      	adds	r6, r1, #0
    828e:	4b3c      	ldr	r3, [pc, #240]	; (8380 <__call_exitprocs+0x100>)
    8290:	b087      	sub	sp, #28
    8292:	681b      	ldr	r3, [r3, #0]
    8294:	9001      	str	r0, [sp, #4]
    8296:	9303      	str	r3, [sp, #12]
    8298:	3349      	adds	r3, #73	; 0x49
    829a:	33ff      	adds	r3, #255	; 0xff
    829c:	9304      	str	r3, [sp, #16]
    829e:	22a4      	movs	r2, #164	; 0xa4
    82a0:	9b03      	ldr	r3, [sp, #12]
    82a2:	0052      	lsls	r2, r2, #1
    82a4:	589f      	ldr	r7, [r3, r2]
    82a6:	2f00      	cmp	r7, #0
    82a8:	d04c      	beq.n	8344 <__call_exitprocs+0xc4>
    82aa:	9b04      	ldr	r3, [sp, #16]
    82ac:	4698      	mov	r8, r3
    82ae:	2300      	movs	r3, #0
    82b0:	469b      	mov	fp, r3
    82b2:	23c4      	movs	r3, #196	; 0xc4
    82b4:	005b      	lsls	r3, r3, #1
    82b6:	469c      	mov	ip, r3
    82b8:	44bc      	add	ip, r7
    82ba:	4663      	mov	r3, ip
    82bc:	9302      	str	r3, [sp, #8]
    82be:	23c6      	movs	r3, #198	; 0xc6
    82c0:	005b      	lsls	r3, r3, #1
    82c2:	469a      	mov	sl, r3
    82c4:	687c      	ldr	r4, [r7, #4]
    82c6:	44ba      	add	sl, r7
    82c8:	00a5      	lsls	r5, r4, #2
    82ca:	197d      	adds	r5, r7, r5
    82cc:	3c01      	subs	r4, #1
    82ce:	d508      	bpl.n	82e2 <__call_exitprocs+0x62>
    82d0:	e026      	b.n	8320 <__call_exitprocs+0xa0>
    82d2:	1d6b      	adds	r3, r5, #5
    82d4:	33ff      	adds	r3, #255	; 0xff
    82d6:	681b      	ldr	r3, [r3, #0]
    82d8:	42b3      	cmp	r3, r6
    82da:	d004      	beq.n	82e6 <__call_exitprocs+0x66>
    82dc:	3d04      	subs	r5, #4
    82de:	3c01      	subs	r4, #1
    82e0:	d31e      	bcc.n	8320 <__call_exitprocs+0xa0>
    82e2:	2e00      	cmp	r6, #0
    82e4:	d1f5      	bne.n	82d2 <__call_exitprocs+0x52>
    82e6:	687b      	ldr	r3, [r7, #4]
    82e8:	686a      	ldr	r2, [r5, #4]
    82ea:	3b01      	subs	r3, #1
    82ec:	42a3      	cmp	r3, r4
    82ee:	d03a      	beq.n	8366 <__call_exitprocs+0xe6>
    82f0:	465b      	mov	r3, fp
    82f2:	606b      	str	r3, [r5, #4]
    82f4:	2a00      	cmp	r2, #0
    82f6:	d0f1      	beq.n	82dc <__call_exitprocs+0x5c>
    82f8:	687b      	ldr	r3, [r7, #4]
    82fa:	9902      	ldr	r1, [sp, #8]
    82fc:	4699      	mov	r9, r3
    82fe:	2301      	movs	r3, #1
    8300:	40a3      	lsls	r3, r4
    8302:	6809      	ldr	r1, [r1, #0]
    8304:	9105      	str	r1, [sp, #20]
    8306:	4219      	tst	r1, r3
    8308:	d123      	bne.n	8352 <__call_exitprocs+0xd2>
    830a:	4790      	blx	r2
    830c:	687b      	ldr	r3, [r7, #4]
    830e:	454b      	cmp	r3, r9
    8310:	d1c5      	bne.n	829e <__call_exitprocs+0x1e>
    8312:	4643      	mov	r3, r8
    8314:	681b      	ldr	r3, [r3, #0]
    8316:	42bb      	cmp	r3, r7
    8318:	d1c1      	bne.n	829e <__call_exitprocs+0x1e>
    831a:	3d04      	subs	r5, #4
    831c:	3c01      	subs	r4, #1
    831e:	d2e0      	bcs.n	82e2 <__call_exitprocs+0x62>
    8320:	4b18      	ldr	r3, [pc, #96]	; (8384 <__call_exitprocs+0x104>)
    8322:	2b00      	cmp	r3, #0
    8324:	d00e      	beq.n	8344 <__call_exitprocs+0xc4>
    8326:	687b      	ldr	r3, [r7, #4]
    8328:	2b00      	cmp	r3, #0
    832a:	d123      	bne.n	8374 <__call_exitprocs+0xf4>
    832c:	683b      	ldr	r3, [r7, #0]
    832e:	2b00      	cmp	r3, #0
    8330:	d024      	beq.n	837c <__call_exitprocs+0xfc>
    8332:	4642      	mov	r2, r8
    8334:	1c38      	adds	r0, r7, #0
    8336:	6013      	str	r3, [r2, #0]
    8338:	e000      	b.n	833c <__call_exitprocs+0xbc>
    833a:	bf00      	nop
    833c:	4643      	mov	r3, r8
    833e:	681f      	ldr	r7, [r3, #0]
    8340:	2f00      	cmp	r7, #0
    8342:	d1b6      	bne.n	82b2 <__call_exitprocs+0x32>
    8344:	b007      	add	sp, #28
    8346:	bc3c      	pop	{r2, r3, r4, r5}
    8348:	4690      	mov	r8, r2
    834a:	4699      	mov	r9, r3
    834c:	46a2      	mov	sl, r4
    834e:	46ab      	mov	fp, r5
    8350:	bdf0      	pop	{r4, r5, r6, r7, pc}
    8352:	4651      	mov	r1, sl
    8354:	6809      	ldr	r1, [r1, #0]
    8356:	4219      	tst	r1, r3
    8358:	d107      	bne.n	836a <__call_exitprocs+0xea>
    835a:	1c2b      	adds	r3, r5, #0
    835c:	3384      	adds	r3, #132	; 0x84
    835e:	6819      	ldr	r1, [r3, #0]
    8360:	9801      	ldr	r0, [sp, #4]
    8362:	4790      	blx	r2
    8364:	e7d2      	b.n	830c <__call_exitprocs+0x8c>
    8366:	607c      	str	r4, [r7, #4]
    8368:	e7c4      	b.n	82f4 <__call_exitprocs+0x74>
    836a:	1c2b      	adds	r3, r5, #0
    836c:	3384      	adds	r3, #132	; 0x84
    836e:	6818      	ldr	r0, [r3, #0]
    8370:	4790      	blx	r2
    8372:	e7cb      	b.n	830c <__call_exitprocs+0x8c>
    8374:	683b      	ldr	r3, [r7, #0]
    8376:	46b8      	mov	r8, r7
    8378:	1c1f      	adds	r7, r3, #0
    837a:	e7e1      	b.n	8340 <__call_exitprocs+0xc0>
    837c:	2300      	movs	r3, #0
    837e:	e7fa      	b.n	8376 <__call_exitprocs+0xf6>
    8380:	000084b4 			; <UNDEFINED> instruction: 0x000084b4
    8384:	00000000 	andeq	r0, r0, r0

00008388 <atexit>:
    8388:	b508      	push	{r3, lr}
    838a:	1c01      	adds	r1, r0, #0
    838c:	2200      	movs	r2, #0
    838e:	2000      	movs	r0, #0
    8390:	2300      	movs	r3, #0
    8392:	f000 f81b 	bl	83cc <__register_exitproc>
    8396:	bd08      	pop	{r3, pc}

00008398 <__libc_fini_array>:
    8398:	b538      	push	{r3, r4, r5, lr}
    839a:	4b09      	ldr	r3, [pc, #36]	; (83c0 <__libc_fini_array+0x28>)
    839c:	4c09      	ldr	r4, [pc, #36]	; (83c4 <__libc_fini_array+0x2c>)
    839e:	1ae4      	subs	r4, r4, r3
    83a0:	10a4      	asrs	r4, r4, #2
    83a2:	d009      	beq.n	83b8 <__libc_fini_array+0x20>
    83a4:	4a08      	ldr	r2, [pc, #32]	; (83c8 <__libc_fini_array+0x30>)
    83a6:	18a5      	adds	r5, r4, r2
    83a8:	00ad      	lsls	r5, r5, #2
    83aa:	18ed      	adds	r5, r5, r3
    83ac:	682b      	ldr	r3, [r5, #0]
    83ae:	3c01      	subs	r4, #1
    83b0:	4798      	blx	r3
    83b2:	3d04      	subs	r5, #4
    83b4:	2c00      	cmp	r4, #0
    83b6:	d1f9      	bne.n	83ac <__libc_fini_array+0x14>
    83b8:	f000 f874 	bl	84a4 <_fini>
    83bc:	bd38      	pop	{r3, r4, r5, pc}
    83be:	46c0      	nop			; (mov r8, r8)
    83c0:	000104cc 	andeq	r0, r1, ip, asr #9
    83c4:	000104d0 	ldrdeq	r0, [r1], -r0	; <UNPREDICTABLE>
    83c8:	3fffffff 	svccc	0x00ffffff

000083cc <__register_exitproc>:
    83cc:	b5f8      	push	{r3, r4, r5, r6, r7, lr}
    83ce:	4644      	mov	r4, r8
    83d0:	465f      	mov	r7, fp
    83d2:	4656      	mov	r6, sl
    83d4:	464d      	mov	r5, r9
    83d6:	469b      	mov	fp, r3
    83d8:	4b2f      	ldr	r3, [pc, #188]	; (8498 <__register_exitproc+0xcc>)
    83da:	b4f0      	push	{r4, r5, r6, r7}
    83dc:	681c      	ldr	r4, [r3, #0]
    83de:	23a4      	movs	r3, #164	; 0xa4
    83e0:	005b      	lsls	r3, r3, #1
    83e2:	1c05      	adds	r5, r0, #0
    83e4:	58e0      	ldr	r0, [r4, r3]
    83e6:	1c0e      	adds	r6, r1, #0
    83e8:	4690      	mov	r8, r2
    83ea:	2800      	cmp	r0, #0
    83ec:	d04b      	beq.n	8486 <__register_exitproc+0xba>
    83ee:	6843      	ldr	r3, [r0, #4]
    83f0:	2b1f      	cmp	r3, #31
    83f2:	dc0d      	bgt.n	8410 <__register_exitproc+0x44>
    83f4:	1c5c      	adds	r4, r3, #1
    83f6:	2d00      	cmp	r5, #0
    83f8:	d121      	bne.n	843e <__register_exitproc+0x72>
    83fa:	3302      	adds	r3, #2
    83fc:	009b      	lsls	r3, r3, #2
    83fe:	6044      	str	r4, [r0, #4]
    8400:	501e      	str	r6, [r3, r0]
    8402:	2000      	movs	r0, #0
    8404:	bc3c      	pop	{r2, r3, r4, r5}
    8406:	4690      	mov	r8, r2
    8408:	4699      	mov	r9, r3
    840a:	46a2      	mov	sl, r4
    840c:	46ab      	mov	fp, r5
    840e:	bdf8      	pop	{r3, r4, r5, r6, r7, pc}
    8410:	4b22      	ldr	r3, [pc, #136]	; (849c <__register_exitproc+0xd0>)
    8412:	2b00      	cmp	r3, #0
    8414:	d03c      	beq.n	8490 <__register_exitproc+0xc4>
    8416:	20c8      	movs	r0, #200	; 0xc8
    8418:	0040      	lsls	r0, r0, #1
    841a:	e000      	b.n	841e <__register_exitproc+0x52>
    841c:	bf00      	nop
    841e:	2800      	cmp	r0, #0
    8420:	d036      	beq.n	8490 <__register_exitproc+0xc4>
    8422:	22a4      	movs	r2, #164	; 0xa4
    8424:	2300      	movs	r3, #0
    8426:	0052      	lsls	r2, r2, #1
    8428:	58a1      	ldr	r1, [r4, r2]
    842a:	6043      	str	r3, [r0, #4]
    842c:	6001      	str	r1, [r0, #0]
    842e:	50a0      	str	r0, [r4, r2]
    8430:	3240      	adds	r2, #64	; 0x40
    8432:	5083      	str	r3, [r0, r2]
    8434:	3204      	adds	r2, #4
    8436:	5083      	str	r3, [r0, r2]
    8438:	2401      	movs	r4, #1
    843a:	2d00      	cmp	r5, #0
    843c:	d0dd      	beq.n	83fa <__register_exitproc+0x2e>
    843e:	009a      	lsls	r2, r3, #2
    8440:	4691      	mov	r9, r2
    8442:	4481      	add	r9, r0
    8444:	4642      	mov	r2, r8
    8446:	2188      	movs	r1, #136	; 0x88
    8448:	464f      	mov	r7, r9
    844a:	507a      	str	r2, [r7, r1]
    844c:	22c4      	movs	r2, #196	; 0xc4
    844e:	0052      	lsls	r2, r2, #1
    8450:	4690      	mov	r8, r2
    8452:	4480      	add	r8, r0
    8454:	4642      	mov	r2, r8
    8456:	3987      	subs	r1, #135	; 0x87
    8458:	4099      	lsls	r1, r3
    845a:	6812      	ldr	r2, [r2, #0]
    845c:	468a      	mov	sl, r1
    845e:	430a      	orrs	r2, r1
    8460:	4694      	mov	ip, r2
    8462:	4642      	mov	r2, r8
    8464:	4661      	mov	r1, ip
    8466:	6011      	str	r1, [r2, #0]
    8468:	2284      	movs	r2, #132	; 0x84
    846a:	4649      	mov	r1, r9
    846c:	465f      	mov	r7, fp
    846e:	0052      	lsls	r2, r2, #1
    8470:	508f      	str	r7, [r1, r2]
    8472:	2d02      	cmp	r5, #2
    8474:	d1c1      	bne.n	83fa <__register_exitproc+0x2e>
    8476:	1c02      	adds	r2, r0, #0
    8478:	4655      	mov	r5, sl
    847a:	328d      	adds	r2, #141	; 0x8d
    847c:	32ff      	adds	r2, #255	; 0xff
    847e:	6811      	ldr	r1, [r2, #0]
    8480:	430d      	orrs	r5, r1
    8482:	6015      	str	r5, [r2, #0]
    8484:	e7b9      	b.n	83fa <__register_exitproc+0x2e>
    8486:	1c20      	adds	r0, r4, #0
    8488:	304d      	adds	r0, #77	; 0x4d
    848a:	30ff      	adds	r0, #255	; 0xff
    848c:	50e0      	str	r0, [r4, r3]
    848e:	e7ae      	b.n	83ee <__register_exitproc+0x22>
    8490:	2001      	movs	r0, #1
    8492:	4240      	negs	r0, r0
    8494:	e7b6      	b.n	8404 <__register_exitproc+0x38>
    8496:	46c0      	nop			; (mov r8, r8)
    8498:	000084b4 			; <UNDEFINED> instruction: 0x000084b4
    849c:	00000000 	andeq	r0, r0, r0

000084a0 <_exit>:
    84a0:	e7fe      	b.n	84a0 <_exit>
    84a2:	46c0      	nop			; (mov r8, r8)

Disassembly of section .fini:

000084a4 <_fini>:
    84a4:	b5f8      	push	{r3, r4, r5, r6, r7, lr}
    84a6:	46c0      	nop			; (mov r8, r8)
    84a8:	bcf8      	pop	{r3, r4, r5, r6, r7}
    84aa:	bc08      	pop	{r3}
    84ac:	469e      	mov	lr, r3
    84ae:	4770      	bx	lr
